Certificate:
    Data:
        Version: 3 (0x2)
        Serial Number: 209 (0xd1)
    Signature Algorithm: sha1WithRSAEncryption
        Issuer: C=FR, ST=FR-29, L=Le Relecq-Kerhuon, O=Federal Service, OU=Certification Authority, CN=Federal Service CA/emailAddress=certs@gie-fs.net
        Validity
            Not Before: Oct  1 12:55:08 2013 GMT
            Not After : Oct  1 12:55:08 2014 GMT
        Subject: C=FR, ST=IDF, L=Paris, O=Prixing SAS, CN=Eric Larcheveque
        Subject Public Key Info:
            Public Key Algorithm: rsaEncryption
                Public-Key: (4096 bit)
                Modulus:
                    00:e4:20:8e:5f:18:7a:3d:b8:4e:fb:23:55:a0:3c:
                    39:e0:a0:3f:9d:b6:61:02:52:f0:4d:ef:64:de:8b:
                    d7:4b:2c:db:7c:49:e8:a7:b0:7c:1d:89:33:4d:e1:
                    e4:c8:ca:8f:3a:b8:db:bf:44:74:70:a4:b1:33:cd:
                    80:43:b8:d9:ba:e2:fb:63:ac:6a:5e:cb:04:bb:c2:
                    a8:0a:04:57:f1:d2:f8:42:ec:57:2d:28:c5:c1:66:
                    90:87:56:84:a9:b1:76:48:d1:73:ef:0e:01:b3:38:
                    bc:94:6e:16:09:33:19:35:48:5f:c7:63:54:fb:95:
                    b3:8c:6c:fc:2c:48:05:7c:d3:64:77:ad:5e:28:2c:
                    25:e8:3a:49:6a:11:bd:0f:33:a8:4c:16:5c:4c:f1:
                    ea:73:03:06:a6:8c:c8:e9:4f:29:eb:53:a1:7e:4d:
                    3b:5f:e9:51:8c:1b:a4:1d:62:9d:9a:75:ca:87:b0:
                    27:9d:2b:99:e0:50:48:fe:37:7e:a2:ab:b9:08:de:
                    40:fd:16:ab:c4:89:55:e3:f3:1a:5c:27:fc:24:f8:
                    d0:9e:79:68:86:79:67:bc:19:d4:8a:21:51:2f:35:
                    19:eb:fe:d9:9c:c8:fb:4a:a0:99:2b:f2:f9:52:f2:
                    8d:c1:20:5d:69:32:16:23:86:2c:90:a1:49:61:70:
                    64:10:45:a0:04:e3:e7:e8:28:2b:2a:4a:86:7e:db:
                    4e:ae:1e:9c:8a:66:2f:dc:65:52:60:a2:c4:5a:07:
                    2f:51:14:69:8a:05:8a:f6:f7:62:32:f6:4f:5c:74:
                    9a:0a:cc:e3:55:6c:c9:38:7b:57:31:11:c9:30:4f:
                    8a:54:ec:b5:34:ba:be:de:7d:74:c7:38:2a:88:db:
                    19:9c:cb:37:b3:3f:3b:a0:51:a8:54:41:43:1a:04:
                    4f:b9:dc:fc:df:a7:d7:13:b8:65:c8:09:8c:5d:2a:
                    10:66:a4:9e:f1:71:bb:07:05:06:9d:80:ce:7c:d0:
                    98:da:e3:22:fd:b9:42:dd:95:08:74:c5:b8:6a:7f:
                    db:c7:9c:cc:e8:d9:e3:71:12:c2:75:4a:63:ea:a0:
                    5b:28:5a:56:d0:aa:10:05:9c:55:6e:bd:7c:97:1f:
                    1e:5a:5f:a7:95:5e:b2:2a:d6:be:c6:4a:c1:f7:51:
                    af:1f:18:75:61:a2:2d:2f:b8:e5:6f:ab:10:18:be:
                    e3:32:55:33:15:16:fa:5b:30:0b:a1:f0:94:52:bb:
                    d3:fd:88:9a:85:7a:95:02:d6:7c:6f:a9:b8:18:7a:
                    d7:48:ac:3b:48:7b:0f:eb:61:0d:21:da:47:a9:0d:
                    90:8e:19:e0:e1:c1:79:c1:60:20:76:51:2e:c4:bc:
                    04:67:07
                Exponent: 65537 (0x10001)
        X509v3 extensions:
            X509v3 Key Usage: 
                Digital Signature, Non Repudiation
            X509v3 Extended Key Usage: 
                TLS Web Client Authentication
            Netscape Comment: 
                This certificate is used for strong authentication.
            Netscape Cert Type: 
                SSL Client
    Signature Algorithm: sha1WithRSAEncryption
         b5:5e:9a:7b:2a:42:26:65:76:7a:10:c4:a0:43:93:54:30:6a:
         d7:5f:c3:11:d9:47:80:39:55:2b:76:26:87:4f:44:4b:4e:2a:
         1f:d1:9e:9c:10:ec:9f:7c:2d:ae:fe:73:af:2c:5e:55:a2:1e:
         82:e6:87:62:9c:f0:3c:a6:fc:e1:61:d5:34:55:6c:a1:56:09:
         85:6e:43:c8:9a:26:b4:68:e1:68:b0:54:58:67:ea:5b:f8:3e:
         e8:80:3e:75:f0:a8:03:71:6d:81:3a:9a:2f:88:2a:95:e6:32:
         83:0b:96:a1:33:7f:e3:63:f5:12:a3:69:66:6f:fd:97:43:11:
         9d:b1
-----BEGIN CERTIFICATE-----
MIIEhjCCA++gAwIBAgICANEwDQYJKoZIhvcNAQEFBQAwgbMxCzAJBgNVBAYTAkZS
MQ4wDAYDVQQIEwVGUi0yOTEaMBgGA1UEBxMRTGUgUmVsZWNxLUtlcmh1b24xGDAW
BgNVBAoTD0ZlZGVyYWwgU2VydmljZTEgMB4GA1UECxMXQ2VydGlmaWNhdGlvbiBB
dXRob3JpdHkxGzAZBgNVBAMTEkZlZGVyYWwgU2VydmljZSBDQTEfMB0GCSqGSIb3
DQEJARYQY2VydHNAZ2llLWZzLm5ldDAeFw0xMzEwMDExMjU1MDhaFw0xNDEwMDEx
MjU1MDhaMFwxCzAJBgNVBAYTAkZSMQwwCgYDVQQIEwNJREYxDjAMBgNVBAcTBVBh
cmlzMRQwEgYDVQQKEwtQcml4aW5nIFNBUzEZMBcGA1UEAxMQRXJpYyBMYXJjaGV2
ZXF1ZTCCAiIwDQYJKoZIhvcNAQEBBQADggIPADCCAgoCggIBAOQgjl8Yej24Tvsj
VaA8OeCgP522YQJS8E3vZN6L10ss23xJ6KewfB2JM03h5MjKjzq4279EdHCksTPN
gEO42bri+2Osal7LBLvCqAoEV/HS+ELsVy0oxcFmkIdWhKmxdkjRc+8OAbM4vJRu
FgkzGTVIX8djVPuVs4xs/CxIBXzTZHetXigsJeg6SWoRvQ8zqEwWXEzx6nMDBqaM
yOlPKetToX5NO1/pUYwbpB1inZp1yoewJ50rmeBQSP43fqKruQjeQP0Wq8SJVePz
Glwn/CT40J55aIZ5Z7wZ1IohUS81Gev+2ZzI+0qgmSvy+VLyjcEgXWkyFiOGLJCh
SWFwZBBFoATj5+goKypKhn7bTq4enIpmL9xlUmCixFoHL1EUaYoFivb3YjL2T1x0
mgrM41VsyTh7VzERyTBPilTstTS6vt59dMc4KojbGZzLN7M/O6BRqFRBQxoET7nc
/N+n1xO4ZcgJjF0qEGaknvFxuwcFBp2AznzQmNrjIv25Qt2VCHTFuGp/28eczOjZ
43ESwnVKY+qgWyhaVtCqEAWcVW69fJcfHlpfp5VesirWvsZKwfdRrx8YdWGiLS+4
5W+rEBi+4zJVMxUW+lswC6HwlFK70/2ImoV6lQLWfG+puBh610isO0h7D+thDSHa
R6kNkI4Z4OHBecFgIHZRLsS8BGcHAgMBAAGjezB5MAsGA1UdDwQEAwIGwDATBgNV
HSUEDDAKBggrBgEFBQcDAjBCBglghkgBhvhCAQ0ENRYzVGhpcyBjZXJ0aWZpY2F0
ZSBpcyB1c2VkIGZvciBzdHJvbmcgYXV0aGVudGljYXRpb24uMBEGCWCGSAGG+EIB
AQQEAwIHgDANBgkqhkiG9w0BAQUFAAOBgQC1Xpp7KkImZXZ6EMSgQ5NUMGrXX8MR
2UeAOVUrdiaHT0RLTiof0Z6cEOyffC2u/nOvLF5Voh6C5odinPA8pvzhYdU0VWyh
VgmFbkPImia0aOFosFRYZ+pb+D7ogD518KgDcW2BOpoviCqV5jKDC5ahM3/jY/US
o2lmb/2XQxGdsQ==
-----END CERTIFICATE-----
